target datalayout = "e-m:e-p270:32:32-p271:32:32-p272:64:64-i64:64-i128:128-f80:128-n8:16:32:64-S128"
target triple = "x86_64-unknown-linux-gnu"

%class.rational = type { %class.mpq }
%class.mpq = type { %class.mpz, %class.mpz }
%class.mpz = type { i32, i8, ptr }
%"class.lp::hnf_cutter" = type { ptr, ptr, ptr, %"class.lp::general_matrix", %class.vector.1, %class.vector.2, %class.ptr_vector, %class.vector.4, %class.rational, i8, %"class.lp::var_register" }
%"class.lp::general_matrix" = type { %"class.lp::permutation_matrix", %"class.lp::permutation_matrix", %class.vector.0 }
%"class.lp::permutation_matrix" = type { %class.vector, %class.vector }
%class.vector = type { ptr }
%class.vector.0 = type { ptr }
%class.vector.1 = type { ptr }
%class.vector.2 = type { ptr }
%class.ptr_vector = type { %class.vector.3 }
%class.vector.3 = type { ptr }
%class.vector.4 = type { ptr }
%"class.lp::var_register" = type { %class.vector.5, %"class.std::unordered_map", i32, i32 }
%class.vector.5 = type { ptr }
%"class.std::unordered_map" = type { %"class.std::_Hashtable" }
%"class.std::_Hashtable" = type { ptr, i64, %"struct.std::__detail::_Hash_node_base", i64, %"struct.std::__detail::_Prime_rehash_policy", ptr }
%"struct.std::__detail::_Hash_node_base" = type { ptr }
%"struct.std::__detail::_Prime_rehash_policy" = type { float, i64 }
%class.svector = type { %class.vector.8 }
%class.vector.8 = type { ptr }
%"struct.lp::lp_settings" = type <{ %"class.lp::lp_settings::default_lp_resource_limit", ptr, ptr, ptr, %"struct.lp::statistics", %class.random_gen, i32, i32, i32, i8, [3 x i8], i32, i8, [3 x i8], i32, [4 x i8], double, i8, i8, [2 x i8], i32, i32, i8, [3 x i8], i32, i8, [3 x i8], i32, i8, [3 x i8], i32, i32, i32, i32, i8, [3 x i8], i32, i32, i32, i8, i8, i8, [5 x i8] }>
%"class.lp::lp_settings::default_lp_resource_limit" = type { %"class.lp::lp_resource_limit", ptr, %class.stopwatch }
%"class.lp::lp_resource_limit" = type { ptr }
%class.stopwatch = type <{ %"class.std::chrono::time_point", %"class.std::chrono::duration", i8, [7 x i8] }>
%"class.std::chrono::time_point" = type { %"class.std::chrono::duration" }
%"class.std::chrono::duration" = type { i64 }
%"struct.lp::statistics" = type { i32, i32, i32, i32, i32, i32, i32, i32, i32, i32, i32, i32, i32, i32, i32, i32, i32, i32, i32, i32, i32, i32, i32, i32, i32, i32, i32, i32, i32, i32, i32 }
%class.random_gen = type { i32 }
%"class.std::_Function_base" = type { %"union.std::_Any_data", ptr }
%"union.std::_Any_data" = type { %"union.std::_Nocopy_types" }
%"union.std::_Nocopy_types" = type { { i64, i64 } }
%"class.lp::lar_solver" = type { %"class.lp::column_namer", %class.trail_stack, %"struct.lp::lp_settings", i32, %class.stacked_value, i32, ptr, %"class.lp::lar_core_solver", ptr, i8, %"class.lp::var_register", %"class.lp::var_register", %class.svector.33, %"class.lp::constraint_set", %class.indexed_uint_set, %class.indexed_uint_set, %class.svector, %class.scoped_dependency_manager, %class.svector, %class.indexed_uint_set, %class.indexed_uint_set, %class.svector, %class.vector.37, %"class.lp::indexed_vector", %"class.std::unordered_map.38", %class.vector.15, %"class.lp::stacked_vector.26", %class.map.54, %class.map.54, %class.indexed_uint_set, i8, %"class.std::unordered_set", %"class.std::unordered_set.76", %class.rational, %"class.std::function" }
%"class.lp::column_namer" = type { ptr }
%class.trail_stack = type { %class.ptr_vector.11, %class.svector, %class.region }
%class.ptr_vector.11 = type { %class.vector.12 }
%class.vector.12 = type { ptr }
%class.region = type { ptr, ptr, ptr, ptr, ptr }
%class.stacked_value = type { i32, %class.vector.13 }
%class.vector.13 = type { ptr }
%"class.lp::lar_core_solver" = type { %class.vector.14, i32, %class.vector.15, %class.vector.4, %class.stacked_value, %"class.lp::stacked_vector", %class.vector.15, %"class.lp::stacked_vector.18", %"class.lp::stacked_vector.18", %"class.lp::static_matrix", %"class.lp::stacked_vector.26", %class.vector, %class.vector, %class.vector.23, %"class.lp::lp_primal_core_solver" }
%class.vector.14 = type { ptr }
%"class.lp::stacked_vector" = type { %class.svector, %class.svector, %class.vector.16, %class.vector.17, %class.svector }
%class.vector.16 = type { ptr }
%class.vector.17 = type { ptr }
%"class.lp::stacked_vector.18" = type { %class.svector, %class.svector, %class.vector.19, %class.vector.15, %class.svector }
%class.vector.19 = type { ptr }
%"class.lp::static_matrix" = type { %"class.std::stack", %class.vector.23, %"class.lp::indexed_vector", %class.vector.24, %class.vector.25 }
%"class.std::stack" = type { %"class.std::deque" }
%"class.std::deque" = type { %"class.std::_Deque_base" }
%"class.std::_Deque_base" = type { %"struct.std::_Deque_base<lp::static_matrix<rational, lp::numeric_pair<rational>>::dim, std::allocator<lp::static_matrix<rational, lp::numeric_pair<rational>>::dim>>::_Deque_impl" }
%"struct.std::_Deque_base<lp::static_matrix<rational, lp::numeric_pair<rational>>::dim, std::allocator<lp::static_matrix<rational, lp::numeric_pair<rational>>::dim>>::_Deque_impl" = type { %"struct.std::_Deque_base<lp::static_matrix<rational, lp::numeric_pair<rational>>::dim, std::allocator<lp::static_matrix<rational, lp::numeric_pair<rational>>::dim>>::_Deque_impl_data" }
%"struct.std::_Deque_base<lp::static_matrix<rational, lp::numeric_pair<rational>>::dim, std::allocator<lp::static_matrix<rational, lp::numeric_pair<rational>>::dim>>::_Deque_impl_data" = type { ptr, i64, %"struct.std::_Deque_iterator", %"struct.std::_Deque_iterator" }
%"struct.std::_Deque_iterator" = type { ptr, ptr, ptr, ptr }
%class.vector.24 = type { ptr }
%class.vector.25 = type { ptr }
%class.vector.23 = type { ptr }
%"class.lp::lp_primal_core_solver" = type { %"class.lp::lp_core_solver_base.base", i32, %class.vector.4, i32, i8, %class.indexed_uint_set, i32, i32, %class.vector, %"class.std::__cxx11::list" }
%"class.lp::lp_core_solver_base.base" = type <{ ptr, i32, i32, i32, [4 x i8], %class.heap, %"class.lp::indexed_vector", ptr, ptr, ptr, ptr, ptr, ptr, ptr, ptr, %class.vector.4, ptr, ptr, ptr, i32, [4 x i8], %class.vector, i8, [7 x i8], ptr, i8 }>
%class.heap = type { %class.svector.28, %class.svector.28 }
%class.svector.28 = type { %class.vector.29 }
%class.vector.29 = type { ptr }
%"class.std::__cxx11::list" = type { %"class.std::__cxx11::_List_base" }
%"class.std::__cxx11::_List_base" = type { %"struct.std::__cxx11::_List_base<unsigned int, std::allocator<unsigned int>>::_List_impl" }
%"struct.std::__cxx11::_List_base<unsigned int, std::allocator<unsigned int>>::_List_impl" = type { %"struct.std::__detail::_List_node_header" }
%"struct.std::__detail::_List_node_header" = type { %"struct.std::__detail::_List_node_base", i64 }
%"struct.std::__detail::_List_node_base" = type { ptr, ptr }
%class.svector.33 = type { %class.vector.34 }
%class.vector.34 = type { ptr }
%"class.lp::constraint_set" = type { %class.region, ptr, ptr, %class.vector.35, %class.stacked_value.36, %class.svector, %class.stacked_value.36 }
%class.vector.35 = type { ptr }
%class.stacked_value.36 = type { i32, %class.vector }
%class.scoped_dependency_manager = type { %"class.scoped_dependency_manager<unsigned int>::config::value_manager", %"class.scoped_dependency_manager<unsigned int>::config::allocator", %class.dependency_manager }
%"class.scoped_dependency_manager<unsigned int>::config::value_manager" = type { i8 }
%"class.scoped_dependency_manager<unsigned int>::config::allocator" = type { %class.region }
%class.dependency_manager = type { ptr, ptr, %class.ptr_vector }
%class.vector.37 = type { ptr }
%"class.lp::indexed_vector" = type { %class.vector.4, %class.vector }
%"class.std::unordered_map.38" = type { %"class.std::_Hashtable.39" }
%"class.std::_Hashtable.39" = type { ptr, i64, %"struct.std::__detail::_Hash_node_base", i64, %"struct.std::__detail::_Prime_rehash_policy", ptr }
%class.vector.15 = type { ptr }
%"class.lp::stacked_vector.26" = type { %class.svector, %class.svector, %class.vector.27, %class.vector, %class.svector }
%class.vector.27 = type { ptr }
%class.map.54 = type { %class.table2map.55 }
%class.table2map.55 = type { %class.core_hashtable.56 }
%class.core_hashtable.56 = type <{ ptr, i32, i32, i32, [4 x i8] }>
%class.indexed_uint_set = type { i32, %class.svector, %class.svector }
%"class.std::unordered_set" = type { %"class.std::_Hashtable.58" }
%"class.std::_Hashtable.58" = type { ptr, i64, %"struct.std::__detail::_Hash_node_base", i64, %"struct.std::__detail::_Prime_rehash_policy", ptr }
%"class.std::unordered_set.76" = type { %"class.std::_Hashtable.77" }
%"class.std::_Hashtable.77" = type { ptr, i64, %"struct.std::__detail::_Hash_node_base", i64, %"struct.std::__detail::_Prime_rehash_policy", ptr }
%"class.std::function" = type { %"class.std::_Function_base", ptr }
%"class.lp::tv" = type { i32 }

; Function Attrs: mustprogress nounwind uwtable
define linkonce_odr hidden void @_ZN2lp2tvC2Ej(ptr noundef nonnull align 4 dereferenceable(4) %this, i32 noundef %i) unnamed_addr #4 comdat align 2 {
entry:
  %this.addr = alloca ptr, align 8
  %i.addr = alloca i32, align 4
  store ptr %this, ptr %this.addr, align 8
  store i32 %i, ptr %i.addr, align 4
  %this1 = load ptr, ptr %this.addr, align 8
  %m_index = getelementptr inbounds %"class.lp::tv", ptr %this1, i32 0, i32 0
  %0 = load i32, ptr %i.addr, align 4
  store i32 %0, ptr %m_index, align 4
  ret void
}

; Function Attrs: mustprogress nounwind uwtable
define linkonce_odr hidden noundef i32 @_ZN2lp2tv9mask_termEj(i32 noundef %j) #4 comdat align 2 {
entry:
  %j.addr = alloca i32, align 4
  store i32 %j, ptr %j.addr, align 4
  %0 = load i32, ptr %j.addr, align 4
  %or = or i32 %0, -2147483648
  ret i32 %or
}

; Function Attrs: mustprogress uwtable
define linkonce_odr hidden i32 @_ZN2lp2tv4termEj(i32 noundef %i) #5 comdat align 2 {
entry:
  %retval = alloca %"class.lp::tv", align 4
  %i.addr = alloca i32, align 4
  store i32 %i, ptr %i.addr, align 4
  %0 = load i32, ptr %i.addr, align 4
  %call = call noundef i32 @_ZN2lp2tv9mask_termEj(i32 noundef %0)
  call void @_ZN2lp2tvC2Ej(ptr noundef nonnull align 4 dereferenceable(4) %retval, i32 noundef %call)
  %coerce.dive = getelementptr inbounds %"class.lp::tv", ptr %retval, i32 0, i32 0
  %1 = load i32, ptr %coerce.dive, align 4
  ret i32 %1
}

; Function Attrs: mustprogress nounwind uwtable
define linkonce_odr hidden noundef i32 @_ZNK6vectorIPN2lp8lar_termELb1EjE4sizeEv(ptr noundef nonnull align 8 dereferenceable(8) %this) #4 comdat align 2 {
entry:
  %retval = alloca i32, align 4
  %this.addr = alloca ptr, align 8
  store ptr %this, ptr %this.addr, align 8
  %this1 = load ptr, ptr %this.addr, align 8
  %m_data = getelementptr inbounds %class.vector.37, ptr %this1, i32 0, i32 0
  %0 = load ptr, ptr %m_data, align 8
  %cmp = icmp eq ptr %0, null
  br i1 %cmp, label %if.then, label %if.end

if.then:                                          ; preds = %entry
  store i32 0, ptr %retval, align 4
  br label %return

if.end:                                           ; preds = %entry
  %m_data2 = getelementptr inbounds %class.vector.37, ptr %this1, i32 0, i32 0
  %1 = load ptr, ptr %m_data2, align 8
  %arrayidx = getelementptr inbounds i32, ptr %1, i64 -1
  %2 = load i32, ptr %arrayidx, align 4
  store i32 %2, ptr %retval, align 4
  br label %return

return:                                           ; preds = %if.end, %if.then
  %3 = load i32, ptr %retval, align 4
  ret i32 %3
}

; Function Attrs: mustprogress nounwind uwtable
define linkonce_odr hidden noundef nonnull align 8 dereferenceable(8) ptr @_ZNK2lp10lar_solver5termsEv(ptr noundef nonnull align 8 dereferenceable(1888) %this) #4 comdat align 2 {
entry:
  %this.addr = alloca ptr, align 8
  store ptr %this, ptr %this.addr, align 8
  %this1 = load ptr, ptr %this.addr, align 8
  %m_terms = getelementptr inbounds %"class.lp::lar_solver", ptr %this1, i32 0, i32 22
  ret ptr %m_terms
}

; Function Attrs: mustprogress uwtable
define hidden noundef zeroext i1 @_ZN2lp10hnf_cutter22init_terms_for_hnf_cutEv(ptr noundef nonnull align 8 dereferenceable(208) %this) #5 align 2 {
entry:
  %this.addr = alloca ptr, align 8
  %i = alloca i32, align 4
  %ref.tmp = alloca %"class.lp::tv", align 4
  store ptr %this, ptr %this.addr, align 8
  %this1 = load ptr, ptr %this.addr, align 8
  call void @_ZN2lp10hnf_cutter5clearEv(ptr noundef nonnull align 8 dereferenceable(208) %this1)
  store i32 0, ptr %i, align 4
  br label %for.cond

for.cond:                                         ; preds = %for.inc, %entry
  %0 = load i32, ptr %i, align 4
  %lra = getelementptr inbounds %"class.lp::hnf_cutter", ptr %this1, i32 0, i32 1
  %1 = load ptr, ptr %lra, align 8
  %call = call noundef nonnull align 8 dereferenceable(8) ptr @_ZNK2lp10lar_solver5termsEv(ptr noundef nonnull align 8 dereferenceable(1888) %1)
  %call2 = call noundef i32 @_ZNK6vectorIPN2lp8lar_termELb1EjE4sizeEv(ptr noundef nonnull align 8 dereferenceable(8) %call)
  %cmp = icmp ult i32 %0, %call2
  br i1 %cmp, label %land.rhs, label %land.end

land.rhs:                                         ; preds = %for.cond
  %call3 = call noundef zeroext i1 @_ZNK2lp10hnf_cutter7is_fullEv(ptr noundef nonnull align 8 dereferenceable(208) %this1)
  %lnot = xor i1 %call3, true
  br label %land.end

land.end:                                         ; preds = %land.rhs, %for.cond
  %2 = phi i1 [ false, %for.cond ], [ %lnot, %land.rhs ]
  br i1 %2, label %for.body, label %for.end

for.body:                                         ; preds = %land.end
  %3 = load i32, ptr %i, align 4
  %call4 = call i32 @_ZN2lp2tv4termEj(i32 noundef %3)
  %coerce.dive = getelementptr inbounds %"class.lp::tv", ptr %ref.tmp, i32 0, i32 0
  store i32 %call4, ptr %coerce.dive, align 4
  call void @_ZN2lp10hnf_cutter25try_add_term_to_A_for_hnfERKNS_2tvE(ptr noundef nonnull align 8 dereferenceable(208) %this1, ptr noundef nonnull align 4 dereferenceable(4) %ref.tmp)
  br label %for.inc

for.inc:                                          ; preds = %for.body
  %4 = load i32, ptr %i, align 4
  %inc = add i32 %4, 1
  store i32 %inc, ptr %i, align 4
  br label %for.cond, !llvm.loop !16

for.end:                                          ; preds = %land.end
  %call5 = call noundef zeroext i1 @_ZNK2lp10hnf_cutter35hnf_has_var_with_non_integral_valueEv(ptr noundef nonnull align 8 dereferenceable(208) %this1)
  ret i1 %call5
}