; Function Attrs: mustprogress uwtable
define hidden noundef zeroext i1 @_ZN2lp10hnf_cutter22init_terms_for_hnf_cutEv(ptr noundef nonnull align 8 dereferenceable(208) %this) local_unnamed_addr #3 align 2 {
entry:
  %ref.tmp = alloca %"class.lp::tv", align 4
  tail call void @_ZN2lp10hnf_cutter5clearEv(ptr noundef nonnull align 8 dereferenceable(208) %this)
  %lra = getelementptr inbounds i8, ptr %this, i64 8
  br label %for.cond

for.cond:                                         ; preds = %for.body, %entry
  %i.0 = phi i32 [ 0, %entry ], [ %inc, %for.body ]
  %0 = load ptr, ptr %lra, align 8
  %m_terms.i = getelementptr inbounds i8, ptr %0, i64 1504
  %1 = load ptr, ptr %m_terms.i, align 8
  %cmp.i = icmp eq ptr %1, null
  br i1 %cmp.i, label %_ZNK6vectorIPN2lp8lar_termELb1EjE4sizeEv.exit, label %if.end.i

if.end.i:                                         ; preds = %for.cond
  %arrayidx.i = getelementptr inbounds i8, ptr %1, i64 -4
  %2 = load i32, ptr %arrayidx.i, align 4
  br label %_ZNK6vectorIPN2lp8lar_termELb1EjE4sizeEv.exit

_ZNK6vectorIPN2lp8lar_termELb1EjE4sizeEv.exit:    ; preds = %for.cond, %if.end.i
  %retval.0.i = phi i32 [ %2, %if.end.i ], [ 0, %for.cond ]
  %cmp = icmp ult i32 %i.0, %retval.0.i
  br i1 %cmp, label %land.rhs, label %for.end

land.rhs:                                         ; preds = %_ZNK6vectorIPN2lp8lar_termELb1EjE4sizeEv.exit
  %call3 = call noundef zeroext i1 @_ZNK2lp10hnf_cutter7is_fullEv(ptr noundef nonnull align 8 dereferenceable(208) %this)
  br i1 %call3, label %for.end, label %for.body

for.body:                                         ; preds = %land.rhs
  %or.i.i = or i32 %i.0, -2147483648
  store i32 %or.i.i, ptr %ref.tmp, align 4
  call void @_ZN2lp10hnf_cutter25try_add_term_to_A_for_hnfERKNS_2tvE(ptr noundef nonnull align 8 dereferenceable(208) %this, ptr noundef nonnull align 4 dereferenceable(4) %ref.tmp)
  %inc = add nuw i32 %i.0, 1
  br label %for.cond, !llvm.loop !86

for.end:                                          ; preds = %_ZNK6vectorIPN2lp8lar_termELb1EjE4sizeEv.exit, %land.rhs
  %call5 = call noundef zeroext i1 @_ZNK2lp10hnf_cutter35hnf_has_var_with_non_integral_valueEv(ptr noundef nonnull align 8 dereferenceable(208) %this)
  ret i1 %call5
}